target datalayout = "e-m:e-p270:32:32-p271:32:32-p272:64:64-i64:64-i128:128-f80:128-n8:16:32:64-S128"
target triple = "x86_64-pc-linux-gnu"

@interleaved_ue_golomb_tab = internal global [256 x i16] zeroinitializer, align 16
@golomb_len_tab = internal global [256 x i8] zeroinitializer, align 16
@top_interleaved_ue_golomb_tab = internal global [256 x i16] zeroinitializer, align 16

; Function Attrs: alwaysinline nounwind uwtable
define internal void @put_vc2_ue_uint_inline(ptr noundef %0, i32 noundef %1) #10 {
  %3 = alloca ptr, align 8
  %4 = alloca i32, align 4
  %5 = alloca i64, align 8
  %6 = alloca i32, align 4
  store ptr %0, ptr %3, align 8, !tbaa !141
  store i32 %1, ptr %4, align 4, !tbaa !49
  call void @llvm.lifetime.start.p0(i64 8, ptr %5) #13
  store i64 1, ptr %5, align 8, !tbaa !106
  call void @llvm.lifetime.start.p0(i64 4, ptr %6) #13
  store i32 1, ptr %6, align 4, !tbaa !49
  %7 = load i32, ptr %4, align 4, !tbaa !49
  %8 = add i32 %7, 1
  store i32 %8, ptr %4, align 4, !tbaa !49
  br label %9

9:                                                ; preds = %13, %2
  %10 = load i32, ptr %4, align 4, !tbaa !49
  %11 = lshr i32 %10, 8
  %12 = icmp ne i32 %11, 0
  br i1 %12, label %13, label %29

13:                                               ; preds = %9
  %14 = load i32, ptr %4, align 4, !tbaa !49
  %15 = and i32 %14, 255
  %16 = zext i32 %15 to i64
  %17 = getelementptr inbounds nuw [256 x i16], ptr @interleaved_ue_golomb_tab, i64 0, i64 %16
  %18 = load i16, ptr %17, align 2, !tbaa !126
  %19 = zext i16 %18 to i64
  %20 = load i32, ptr %6, align 4, !tbaa !49
  %21 = zext i32 %20 to i64
  %22 = shl i64 %19, %21
  %23 = load i64, ptr %5, align 8, !tbaa !106
  %24 = or i64 %23, %22
  store i64 %24, ptr %5, align 8, !tbaa !106
  %25 = load i32, ptr %4, align 4, !tbaa !49
  %26 = lshr i32 %25, 8
  store i32 %26, ptr %4, align 4, !tbaa !49
  %27 = load i32, ptr %6, align 4, !tbaa !49
  %28 = add nsw i32 %27, 16
  store i32 %28, ptr %6, align 4, !tbaa !49
  br label %9, !llvm.loop !197

29:                                               ; preds = %9
  %30 = load i32, ptr %4, align 4, !tbaa !49
  %31 = zext i32 %30 to i64
  %32 = getelementptr inbounds nuw [256 x i16], ptr @top_interleaved_ue_golomb_tab, i64 0, i64 %31
  %33 = load i16, ptr %32, align 2, !tbaa !126
  %34 = zext i16 %33 to i64
  %35 = load i32, ptr %6, align 4, !tbaa !49
  %36 = zext i32 %35 to i64
  %37 = shl i64 %34, %36
  %38 = load i64, ptr %5, align 8, !tbaa !106
  %39 = or i64 %38, %37
  store i64 %39, ptr %5, align 8, !tbaa !106
  %40 = load i32, ptr %4, align 4, !tbaa !49
  %41 = zext i32 %40 to i64
  %42 = getelementptr inbounds nuw [256 x i8], ptr @golomb_len_tab, i64 0, i64 %41
  %43 = load i8, ptr %42, align 1, !tbaa !125
  %44 = zext i8 %43 to i32
  %45 = load i32, ptr %6, align 4, !tbaa !49
  %46 = add nsw i32 %45, %44
  store i32 %46, ptr %6, align 4, !tbaa !49
  %47 = load ptr, ptr %3, align 8, !tbaa !141
  %48 = load i32, ptr %6, align 4, !tbaa !49
  %49 = load i64, ptr %5, align 8, !tbaa !106
  call void @put_bits63(ptr noundef %47, i32 noundef %48, i64 noundef %49)
  call void @llvm.lifetime.end.p0(i64 4, ptr %6) #13
  call void @llvm.lifetime.end.p0(i64 8, ptr %5) #13
  ret void
}

; Function Attrs: noinline nounwind uwtable
define internal void @put_vc2_ue_uint(ptr noundef %0, i32 noundef %1) #11 {
  %3 = alloca ptr, align 8
  %4 = alloca i32, align 4
  store ptr %0, ptr %3, align 8, !tbaa !141
  store i32 %1, ptr %4, align 4, !tbaa !49
  %5 = load ptr, ptr %3, align 8, !tbaa !141
  %6 = load i32, ptr %4, align 4, !tbaa !49
  call void @put_vc2_ue_uint_inline(ptr noundef %5, i32 noundef %6)
  ret void
}