; Function Attrs: noinline nounwind uwtable
define internal fastcc void @put_vc2_ue_uint(ptr noundef captures(none) %0, i32 noundef %1) unnamed_addr #9 {
  %3 = add i32 %1, 1
  %.not.i1 = icmp ult i32 %3, 256
  br i1 %.not.i1, label %put_vc2_ue_uint_inline.exit, label %.lr.ph

.lr.ph:                                           ; preds = %2, %.lr.ph
  %indvars.iv = phi i64 [ %indvars.iv.next, %.lr.ph ], [ 1, %2 ]
  %.014.i3 = phi i64 [ %11, %.lr.ph ], [ 1, %2 ]
  %.015.i2 = phi i32 [ %4, %.lr.ph ], [ %3, %2 ]
  %4 = lshr i32 %.015.i2, 8
  %5 = and i32 %.015.i2, 255
  %6 = zext nneg i32 %5 to i64
  %7 = getelementptr inbounds nuw [256 x i16], ptr @interleaved_ue_golomb_tab, i64 0, i64 %6
  %8 = load i16, ptr %7, align 2, !tbaa !114
  %9 = zext i16 %8 to i64
  %10 = shl i64 %9, %indvars.iv
  %11 = or i64 %10, %.014.i3
  %indvars.iv.next = add nuw nsw i64 %indvars.iv, 16
  %.not.i = icmp ult i32 %.015.i2, 65536
  br i1 %.not.i, label %put_vc2_ue_uint_inline.exit.loopexit, label %.lr.ph, !llvm.loop !178

put_vc2_ue_uint_inline.exit.loopexit:             ; preds = %.lr.ph
  %12 = trunc nuw nsw i64 %indvars.iv.next to i32
  br label %put_vc2_ue_uint_inline.exit

put_vc2_ue_uint_inline.exit:                      ; preds = %put_vc2_ue_uint_inline.exit.loopexit, %2
  %.015.i.lcssa = phi i32 [ %3, %2 ], [ %4, %put_vc2_ue_uint_inline.exit.loopexit ]
  %.014.i.lcssa = phi i64 [ 1, %2 ], [ %11, %put_vc2_ue_uint_inline.exit.loopexit ]
  %.0.i.lcssa = phi i32 [ 1, %2 ], [ %12, %put_vc2_ue_uint_inline.exit.loopexit ]
  %13 = zext nneg i32 %.015.i.lcssa to i64
  %14 = getelementptr inbounds nuw [256 x i16], ptr @top_interleaved_ue_golomb_tab, i64 0, i64 %13
  %15 = load i16, ptr %14, align 2, !tbaa !114
  %16 = zext i16 %15 to i64
  %17 = zext nneg i32 %.0.i.lcssa to i64
  %18 = shl i64 %16, %17
  %19 = or i64 %18, %.014.i.lcssa
  %20 = getelementptr inbounds nuw [256 x i8], ptr @golomb_len_tab, i64 0, i64 %13
  %21 = load i8, ptr %20, align 1, !tbaa !95
  %22 = zext i8 %21 to i32
  %23 = add nuw nsw i32 %.0.i.lcssa, %22
  tail call fastcc void @put_bits63(ptr noundef %0, i32 noundef %23, i64 noundef %19)
  ret void
}